; Function Attrs: mustprogress uwtable
define noundef ptr @uprv_decNumberLn_77(ptr noundef returned %0, ptr noundef %1, ptr noundef %2) local_unnamed_addr #3 {
  %4 = alloca i32, align 4
  call void @llvm.lifetime.start.p0(i64 4, ptr nonnull %4) #16
  store i32 0, ptr %4, align 4, !tbaa !14
  %5 = load i32, ptr %2, align 4, !tbaa !27
  %6 = icmp sgt i32 %5, 999999
  br i1 %6, label %.thread, label %7

7:                                                ; preds = %3
  %8 = getelementptr inbounds nuw i8, ptr %2, i64 4
  %9 = load i32, ptr %8, align 4, !tbaa !36
  %10 = icmp sgt i32 %9, 999999
  br i1 %10, label %.thread, label %11

11:                                               ; preds = %7
  %12 = getelementptr inbounds nuw i8, ptr %2, i64 8
  %13 = load i32, ptr %12, align 4, !tbaa !35
  %14 = icmp slt i32 %13, -999999
  br i1 %14, label %.thread, label %15

15:                                               ; preds = %11
  %16 = load i32, ptr %1, align 4, !tbaa !9
  %17 = icmp sgt i32 %16, 999999
  br i1 %17, label %.thread, label %18

18:                                               ; preds = %15
  %19 = getelementptr inbounds nuw i8, ptr %1, i64 4
  %20 = load i32, ptr %19, align 4, !tbaa !8
  %21 = add i32 %16, -1000001
  %22 = add i32 %21, %20
  %or.cond.i = icmp ult i32 %22, -2999997
  br i1 %or.cond.i, label %23, label %33

23:                                               ; preds = %18
  %24 = getelementptr inbounds nuw i8, ptr %1, i64 9
  %25 = load i8, ptr %24, align 1, !tbaa !10
  %26 = icmp eq i8 %25, 0
  %27 = icmp eq i32 %16, 1
  %or.cond16.i = and i1 %27, %26
  br i1 %or.cond16.i, label %28, label %.thread

28:                                               ; preds = %23
  %29 = getelementptr inbounds nuw i8, ptr %1, i64 8
  %30 = load i8, ptr %29, align 4, !tbaa !3
  %31 = and i8 %30, 112
  %32 = icmp eq i8 %31, 0
  br i1 %32, label %33, label %.thread

33:                                               ; preds = %28, %18
  %34 = call fastcc noundef ptr @_ZL7decLnOpP9decNumberPKS_P10decContextPj(ptr noundef %0, ptr noundef nonnull %1, ptr noundef nonnull %2, ptr noundef %4)
  %.pr = load i32, ptr %4, align 4, !tbaa !14
  %.not8 = icmp eq i32 %.pr, 0
  br i1 %.not8, label %46, label %.thread

.thread:                                          ; preds = %3, %7, %11, %15, %23, %28, %33
  %35 = phi i32 [ %.pr, %33 ], [ 64, %11 ], [ 64, %7 ], [ 64, %3 ], [ 128, %15 ], [ 128, %28 ], [ 128, %23 ]
  %36 = and i32 %35, 221
  %.not.i = icmp eq i32 %36, 0
  br i1 %.not.i, label %_ZL9decStatusP9decNumberjP10decContext.exit, label %37

37:                                               ; preds = %.thread
  %38 = and i32 %35, 1073741824
  %.not6.i = icmp eq i32 %38, 0
  br i1 %.not6.i, label %41, label %39

39:                                               ; preds = %37
  %40 = and i32 %35, -1073741825
  br label %_ZL9decStatusP9decNumberjP10decContext.exit

41:                                               ; preds = %37
  %42 = getelementptr inbounds nuw i8, ptr %0, i64 8
  %43 = getelementptr inbounds nuw i8, ptr %0, i64 4
  store i32 0, ptr %43, align 4, !tbaa !8
  store i32 1, ptr %0, align 4, !tbaa !9
  %44 = getelementptr inbounds nuw i8, ptr %0, i64 9
  store i8 0, ptr %44, align 1, !tbaa !10
  store i8 32, ptr %42, align 4, !tbaa !3
  br label %_ZL9decStatusP9decNumberjP10decContext.exit

_ZL9decStatusP9decNumberjP10decContext.exit:      ; preds = %.thread, %39, %41
  %.0.i = phi i32 [ %40, %39 ], [ %35, %41 ], [ %35, %.thread ]
  %45 = tail call ptr @uprv_decContextSetStatus_77(ptr noundef nonnull %2, i32 noundef %.0.i)
  br label %46

46:                                               ; preds = %_ZL9decStatusP9decNumberjP10decContext.exit, %33
  call void @llvm.lifetime.end.p0(i64 4, ptr nonnull %4) #16
  ret ptr %0
}